Certificate:
    Data:
        Version: 3 (0x2)
        Serial Number: 1 (0x1)
    Signature Algorithm: ecdsa-with-SHA256
        Issuer: C=CH, ST=ZH, L=Winterthur, O=celsi, CN=celsi-ca
        Validity
            Not Before: Aug 21 14:51:23 2018 GMT
            Not After : Aug 18 14:51:23 2028 GMT
        Subject: C=CH, ST=ZH, O=celsi, CN=celsi-server
        Subject Public Key Info:
            Public Key Algorithm: id-ecPublicKey
                Public-Key: (256 bit)
                pub: 
                    04:a3:5a:23:9e:25:2a:1c:d6:10:87:02:43:31:de:
                    77:cf:04:8c:07:35:a4:d7:47:1d:f7:b1:1c:a0:81:
                    28:d7:24:e0:51:5c:3c:1d:7d:c3:ad:62:4b:18:6d:
                    ac:59:a7:62:f4:fa:5e:81:47:a1:5b:4a:47:11:43:
                    3d:af:7a:e3:3f
                ASN1 OID: prime256v1
                NIST CURVE: P-256
        X509v3 extensions:
            X509v3 Basic Constraints: 
                CA:FALSE
            Netscape Comment: 
                OpenSSL Generated Certificate
            X509v3 Subject Key Identifier: 
                79:95:C8:31:9F:8A:72:BD:32:74:19:9C:E7:53:C0:E3:50:A0:CF:A4
            X509v3 Authority Key Identifier: 
                keyid:BB:4D:04:27:73:97:81:32:E3:06:9F:C5:AE:3D:69:0E:A3:18:41:F2

    Signature Algorithm: ecdsa-with-SHA256
         30:45:02:21:00:ac:2e:d9:ff:1f:8f:e2:75:59:09:5e:77:97:
         37:d4:7d:6b:d6:a3:38:f3:69:ce:3e:19:e6:76:de:92:47:fd:
         bb:02:20:75:26:20:2e:62:ef:c8:f5:ca:8e:e6:65:e5:4d:b9:
         53:a5:bb:c1:51:19:17:d6:1e:11:9a:67:32:0d:5f:65:1a
-----BEGIN CERTIFICATE-----
MIIB/TCCAaOgAwIBAgIBATAKBggqhkjOPQQDAjBSMQswCQYDVQQGEwJDSDELMAkG
A1UECAwCWkgxEzARBgNVBAcMCldpbnRlcnRodXIxDjAMBgNVBAoMBWNlbHNpMREw
DwYDVQQDDAhjZWxzaS1jYTAeFw0xODA4MjExNDUxMjNaFw0yODA4MTgxNDUxMjNa
MEExCzAJBgNVBAYTAkNIMQswCQYDVQQIDAJaSDEOMAwGA1UECgwFY2Vsc2kxFTAT
BgNVBAMMDGNlbHNpLXNlcnZlcjBZMBMGByqGSM49AgEGCCqGSM49AwEHA0IABKNa
I54lKhzWEIcCQzHed88EjAc1pNdHHfexHKCBKNck4FFcPB19w61iSxhtrFmnYvT6
XoFHoVtKRxFDPa964z+jezB5MAkGA1UdEwQCMAAwLAYJYIZIAYb4QgENBB8WHU9w
ZW5TU0wgR2VuZXJhdGVkIENlcnRpZmljYXRlMB0GA1UdDgQWBBR5lcgxn4pyvTJ0
GZznU8DjUKDPpDAfBgNVHSMEGDAWgBS7TQQnc5eBMuMGn8WuPWkOoxhB8jAKBggq
hkjOPQQDAgNIADBFAiEArC7Z/x+P4nVZCV53lzfUfWvWozjzac4+GeZ23pJH/bsC
IHUmIC5i78j1yo7mZeVNuVOlu8FRGRfWHhGaZzINX2Ua
-----END CERTIFICATE-----
