Certificate:
    Data:
        Version: 3 (0x2)
        Serial Number: 1 (0x1)
    Signature Algorithm: ecdsa-with-SHA256
        Issuer: C=CH, ST=ZH, L=Winterthur, O=wenkst, CN=wenkst-ca
        Validity
            Not Before: Sep 27 10:15:52 2018 GMT
            Not After : Sep 24 10:15:52 2028 GMT
        Subject: C=CH, ST=ZH, O=wenkst, CN=wenkst-server
        Subject Public Key Info:
            Public Key Algorithm: id-ecPublicKey
                Public-Key: (256 bit)
                pub: 
                    04:a3:b9:b4:7b:b8:49:2b:32:e7:e9:69:bd:a4:99:
                    35:ec:24:26:47:7c:9a:7a:31:61:98:82:e4:0e:0e:
                    d8:47:da:1f:91:49:47:78:8a:7f:1e:b0:0a:96:b6:
                    4e:6a:5e:19:7e:b4:2c:f3:cd:c5:46:f2:72:0d:b5:
                    95:34:c4:97:08
                ASN1 OID: prime256v1
                NIST CURVE: P-256
        X509v3 extensions:
            X509v3 Basic Constraints: 
                CA:FALSE
            Netscape Comment: 
                OpenSSL Generated Certificate
            X509v3 Subject Key Identifier: 
                3D:C2:48:C1:B5:BF:88:1B:91:64:E3:F3:96:E6:61:90:A3:1A:CB:C0
            X509v3 Authority Key Identifier: 
                keyid:C3:A9:79:C0:27:AA:23:F6:83:00:BC:C1:4F:07:B7:32:AE:52:57:7F

    Signature Algorithm: ecdsa-with-SHA256
         30:46:02:21:00:9f:b0:d8:ae:d6:02:f7:ad:70:bb:3c:d2:32:
         b0:2f:11:ac:32:1b:05:14:ec:ac:2c:e4:12:c3:4f:2b:17:a7:
         17:02:21:00:c5:84:88:22:7e:85:fb:44:b0:e1:d2:11:b6:3d:
         7b:6c:e9:ec:93:c9:ce:cc:e5:4c:98:e1:bf:02:55:ee:7f:71
-----BEGIN CERTIFICATE-----
MIICAjCCAaegAwIBAgIBATAKBggqhkjOPQQDAjBUMQswCQYDVQQGEwJDSDELMAkG
A1UECAwCWkgxEzARBgNVBAcMCldpbnRlcnRodXIxDzANBgNVBAoMBndlbmtzdDES
MBAGA1UEAwwJd2Vua3N0LWNhMB4XDTE4MDkyNzEwMTU1MloXDTI4MDkyNDEwMTU1
MlowQzELMAkGA1UEBhMCQ0gxCzAJBgNVBAgMAlpIMQ8wDQYDVQQKDAZ3ZW5rc3Qx
FjAUBgNVBAMMDXdlbmtzdC1zZXJ2ZXIwWTATBgcqhkjOPQIBBggqhkjOPQMBBwNC
AASjubR7uEkrMufpab2kmTXsJCZHfJp6MWGYguQODthH2h+RSUd4in8esAqWtk5q
Xhl+tCzzzcVG8nINtZU0xJcIo3sweTAJBgNVHRMEAjAAMCwGCWCGSAGG+EIBDQQf
Fh1PcGVuU1NMIEdlbmVyYXRlZCBDZXJ0aWZpY2F0ZTAdBgNVHQ4EFgQUPcJIwbW/
iBuRZOPzluZhkKMay8AwHwYDVR0jBBgwFoAUw6l5wCeqI/aDALzBTwe3Mq5SV38w
CgYIKoZIzj0EAwIDSQAwRgIhAJ+w2K7WAvetcLs80jKwLxGsMhsFFOysLOQSw08r
F6cXAiEAxYSIIn6F+0Sw4dIRtj17bOnsk8nOzOVMmOG/AlXuf3E=
-----END CERTIFICATE-----
