Certificate:
    Data:
        Version: 3 (0x2)
        Serial Number: 2 (0x2)
    Signature Algorithm: ecdsa-with-SHA256
        Issuer: C=CH, ST=ZH, L=Winterthur, O=wenkst, CN=wenkst-ca
        Validity
            Not Before: Sep 27 10:16:47 2018 GMT
            Not After : Sep 24 10:16:47 2028 GMT
        Subject: C=CH, ST=ZH, O=wenkst, CN=wenkst-client
        Subject Public Key Info:
            Public Key Algorithm: id-ecPublicKey
                Public-Key: (256 bit)
                pub: 
                    04:82:8d:35:21:32:70:b6:3c:40:25:17:1d:e9:43:
                    d5:89:ae:72:57:47:81:6d:a9:60:3c:31:83:17:7c:
                    11:76:fa:0e:a0:79:c3:44:4a:78:46:b5:00:43:0d:
                    a2:0b:77:be:d9:ec:ed:2d:ba:cf:39:d4:8d:02:a2:
                    17:1f:56:97:fd
                ASN1 OID: prime256v1
                NIST CURVE: P-256
        X509v3 extensions:
            X509v3 Basic Constraints: 
                CA:FALSE
            Netscape Comment: 
                OpenSSL Generated Certificate
            X509v3 Subject Key Identifier: 
                D2:77:03:F5:23:F7:39:43:C3:8C:CC:31:D8:7D:DC:02:95:D5:97:D7
            X509v3 Authority Key Identifier: 
                keyid:C3:A9:79:C0:27:AA:23:F6:83:00:BC:C1:4F:07:B7:32:AE:52:57:7F

    Signature Algorithm: ecdsa-with-SHA256
         30:45:02:20:2a:3c:25:d5:18:cb:1b:00:47:ee:90:34:45:4e:
         94:d1:0d:48:37:1f:66:51:c0:36:57:40:12:bd:23:49:94:af:
         02:21:00:ef:37:95:8b:ed:79:16:da:ac:33:91:a3:57:0f:bb:
         64:8c:69:28:10:3d:12:bd:88:60:c2:0d:5e:a8:7f:5d:a3
-----BEGIN CERTIFICATE-----
MIICATCCAaegAwIBAgIBAjAKBggqhkjOPQQDAjBUMQswCQYDVQQGEwJDSDELMAkG
A1UECAwCWkgxEzARBgNVBAcMCldpbnRlcnRodXIxDzANBgNVBAoMBndlbmtzdDES
MBAGA1UEAwwJd2Vua3N0LWNhMB4XDTE4MDkyNzEwMTY0N1oXDTI4MDkyNDEwMTY0
N1owQzELMAkGA1UEBhMCQ0gxCzAJBgNVBAgMAlpIMQ8wDQYDVQQKDAZ3ZW5rc3Qx
FjAUBgNVBAMMDXdlbmtzdC1jbGllbnQwWTATBgcqhkjOPQIBBggqhkjOPQMBBwNC
AASCjTUhMnC2PEAlFx3pQ9WJrnJXR4FtqWA8MYMXfBF2+g6gecNESnhGtQBDDaIL
d77Z7O0tus851I0CohcfVpf9o3sweTAJBgNVHRMEAjAAMCwGCWCGSAGG+EIBDQQf
Fh1PcGVuU1NMIEdlbmVyYXRlZCBDZXJ0aWZpY2F0ZTAdBgNVHQ4EFgQU0ncD9SP3
OUPDjMwx2H3cApXVl9cwHwYDVR0jBBgwFoAUw6l5wCeqI/aDALzBTwe3Mq5SV38w
CgYIKoZIzj0EAwIDSAAwRQIgKjwl1RjLGwBH7pA0RU6U0Q1INx9mUcA2V0ASvSNJ
lK8CIQDvN5WL7XkW2qwzkaNXD7tkjGkoED0SvYhgwg1eqH9dow==
-----END CERTIFICATE-----
