Certificate:
    Data:
        Version: 3 (0x2)
        Serial Number: 1 (0x1)
    Signature Algorithm: ecdsa-with-SHA256
        Issuer: C=CH, ST=ZH, L=Winterthur, O=celsi, CN=wenkst-ca
        Validity
            Not Before: Nov  8 12:55:55 2018 GMT
            Not After : Nov  5 12:55:55 2028 GMT
        Subject: C=CH, ST=ZH, O=celsi, CN=wenkst-server
        Subject Public Key Info:
            Public Key Algorithm: id-ecPublicKey
                Public-Key: (256 bit)
                pub: 
                    04:c4:af:8a:0c:0c:19:a9:1b:fe:9e:84:ea:01:55:
                    79:03:9e:ff:ce:6f:e3:b9:1a:79:fd:96:d2:2b:f8:
                    9d:a8:25:33:4c:f2:34:35:00:90:8a:be:07:40:58:
                    5b:c3:bf:76:a9:a5:7d:29:57:62:9b:66:66:4d:a7:
                    13:45:b3:1e:bf
                ASN1 OID: prime256v1
                NIST CURVE: P-256
        X509v3 extensions:
            X509v3 Basic Constraints: 
                CA:FALSE
            Netscape Comment: 
                OpenSSL Generated Certificate
            X509v3 Subject Key Identifier: 
                9A:76:AF:1D:E3:C5:89:15:C6:D2:B1:ED:17:DF:2F:DA:8A:D8:07:F7
            X509v3 Authority Key Identifier: 
                keyid:9F:60:76:3C:CD:F2:63:2B:24:5F:39:29:94:CA:17:0E:E0:A5:6F:ED

    Signature Algorithm: ecdsa-with-SHA256
         30:44:02:20:6a:ba:d8:05:8e:64:89:bc:09:d2:cb:ac:72:7a:
         c3:ff:23:12:4e:c7:3e:2f:c5:ab:49:07:3a:6d:c8:49:d0:ff:
         02:20:75:a0:9c:88:97:b1:8b:d9:01:d5:50:62:b8:e4:0a:70:
         d0:d0:66:a5:c0:16:97:20:b1:45:bb:89:25:6a:d7:d8
-----BEGIN CERTIFICATE-----
MIIB/jCCAaWgAwIBAgIBATAKBggqhkjOPQQDAjBTMQswCQYDVQQGEwJDSDELMAkG
A1UECAwCWkgxEzARBgNVBAcMCldpbnRlcnRodXIxDjAMBgNVBAoMBWNlbHNpMRIw
EAYDVQQDDAl3ZW5rc3QtY2EwHhcNMTgxMTA4MTI1NTU1WhcNMjgxMTA1MTI1NTU1
WjBCMQswCQYDVQQGEwJDSDELMAkGA1UECAwCWkgxDjAMBgNVBAoMBWNlbHNpMRYw
FAYDVQQDDA13ZW5rc3Qtc2VydmVyMFkwEwYHKoZIzj0CAQYIKoZIzj0DAQcDQgAE
xK+KDAwZqRv+noTqAVV5A57/zm/juRp5/ZbSK/idqCUzTPI0NQCQir4HQFhbw792
qaV9KVdim2ZmTacTRbMev6N7MHkwCQYDVR0TBAIwADAsBglghkgBhvhCAQ0EHxYd
T3BlblNTTCBHZW5lcmF0ZWQgQ2VydGlmaWNhdGUwHQYDVR0OBBYEFJp2rx3jxYkV
xtKx7RffL9qK2Af3MB8GA1UdIwQYMBaAFJ9gdjzN8mMrJF85KZTKFw7gpW/tMAoG
CCqGSM49BAMCA0cAMEQCIGq62AWOZIm8CdLLrHJ6w/8jEk7HPi/Fq0kHOm3ISdD/
AiB1oJyIl7GL2QHVUGK45Apw0NBmpcAWlyCxRbuJJWrX2A==
-----END CERTIFICATE-----
